target datalayout = "e-m:e-p270:32:32-p271:32:32-p272:64:64-i64:64-i128:128-f80:128-n8:16:32:64-S128"
target triple = "x86_64-pc-linux-gnu"

%"class.llvm::StringRef" = type { ptr, i64 }
%"class.llvm::SmallVectorBase" = type { ptr, i32, i32 }
%"class.llvm::StringMapImpl" = type { ptr, i32, i32, i32, i32 }
%"struct.(anonymous namespace)::StructInfo" = type { %"class.llvm::StringRef", i8, i8, i32, i32, i32, i32, %"class.std::vector.279", %"class.llvm::StringMap.284" }
%"class.std::vector.279" = type { %"struct.std::_Vector_base.280" }
%"struct.std::_Vector_base.280" = type { %"struct.std::_Vector_base<(anonymous namespace)::FieldInfo, std::allocator<(anonymous namespace)::FieldInfo>>::_Vector_impl" }
%"struct.std::_Vector_base<(anonymous namespace)::FieldInfo, std::allocator<(anonymous namespace)::FieldInfo>>::_Vector_impl" = type { %"struct.std::_Vector_base<(anonymous namespace)::FieldInfo, std::allocator<(anonymous namespace)::FieldInfo>>::_Vector_impl_data" }
%"struct.std::_Vector_base<(anonymous namespace)::FieldInfo, std::allocator<(anonymous namespace)::FieldInfo>>::_Vector_impl_data" = type { ptr, ptr, ptr }
%"class.llvm::StringMap.284" = type { %"class.llvm::StringMapImpl" }
%"struct.(anonymous namespace)::FieldInfo" = type { i32, i32, i32, i32, %"class.(anonymous namespace)::FieldInitializer" }
%"class.(anonymous namespace)::FieldInitializer" = type { i32, %union.anon.287 }
%union.anon.287 = type { %"struct.(anonymous namespace)::StructFieldInfo" }
%"struct.(anonymous namespace)::StructFieldInfo" = type { %"class.std::vector.298", %"struct.(anonymous namespace)::StructInfo" }
%"class.std::vector.298" = type { %"struct.std::_Vector_base.299" }
%"struct.std::_Vector_base.299" = type { %"struct.std::_Vector_base<(anonymous namespace)::StructInitializer, std::allocator<(anonymous namespace)::StructInitializer>>::_Vector_impl" }
%"struct.std::_Vector_base<(anonymous namespace)::StructInitializer, std::allocator<(anonymous namespace)::StructInitializer>>::_Vector_impl" = type { %"struct.std::_Vector_base<(anonymous namespace)::StructInitializer, std::allocator<(anonymous namespace)::StructInitializer>>::_Vector_impl_data" }
%"struct.std::_Vector_base<(anonymous namespace)::StructInitializer, std::allocator<(anonymous namespace)::StructInitializer>>::_Vector_impl_data" = type { ptr, ptr, ptr }
%"struct.(anonymous namespace)::IntFieldInfo" = type { %"class.llvm::SmallVector.288" }
%"class.llvm::SmallVector.288" = type { %"class.llvm::SmallVectorImpl.289", %"struct.llvm::SmallVectorStorage.292" }
%"class.llvm::SmallVectorImpl.289" = type { %"class.llvm::SmallVectorTemplateBase.290" }
%"class.llvm::SmallVectorTemplateBase.290" = type { %"class.llvm::SmallVectorTemplateCommon.291" }
%"class.llvm::SmallVectorTemplateCommon.291" = type { %"class.llvm::SmallVectorBase" }
%"struct.llvm::SmallVectorStorage.292" = type { [8 x i8] }
%"struct.(anonymous namespace)::RealFieldInfo" = type { %"class.llvm::SmallVector.293" }
%"class.llvm::SmallVector.293" = type { %"class.llvm::SmallVectorImpl.294", %"struct.llvm::SmallVectorStorage.297" }
%"class.llvm::SmallVectorImpl.294" = type { %"class.llvm::SmallVectorTemplateBase.295" }
%"class.llvm::SmallVectorTemplateBase.295" = type { %"class.llvm::SmallVectorTemplateCommon.296" }
%"class.llvm::SmallVectorTemplateCommon.296" = type { %"class.llvm::SmallVectorBase" }
%"struct.llvm::SmallVectorStorage.297" = type { [16 x i8] }

; Function Attrs: mustprogress nounwind uwtable
define linkonce_odr hidden noundef ptr @_ZNK4llvm25SmallVectorTemplateCommonINS_5APIntEvE10getFirstElEv(ptr noundef nonnull align 8 dereferenceable(16) %0) #0 comdat align 2 {
  %2 = alloca ptr, align 8
  store ptr %0, ptr %2, align 8
  %3 = load ptr, ptr %2, align 8
  %4 = getelementptr inbounds i8, ptr %3, i64 16
  ret ptr %4
}

; Function Attrs: mustprogress nounwind uwtable
define linkonce_odr hidden noundef ptr @_ZNK4llvm25SmallVectorTemplateCommonIPKNS_6MCExprEvE10getFirstElEv(ptr noundef nonnull align 8 dereferenceable(16) %0) #0 comdat align 2 {
  %2 = alloca ptr, align 8
  store ptr %0, ptr %2, align 8
  %3 = load ptr, ptr %2, align 8
  %4 = getelementptr inbounds i8, ptr %3, i64 16
  ret ptr %4
}

; Function Attrs: mustprogress nounwind uwtable
define linkonce_odr hidden void @_ZN4llvm25SmallVectorTemplateCommonINS_5APIntEvEC2Em(ptr noundef nonnull align 8 dereferenceable(16) %0, i64 noundef %1) unnamed_addr #0 comdat align 2 {
  %3 = alloca ptr, align 8
  %4 = alloca i64, align 8
  store ptr %0, ptr %3, align 8
  store i64 %1, ptr %4, align 8
  %5 = load ptr, ptr %3, align 8
  %6 = call noundef ptr @_ZNK4llvm25SmallVectorTemplateCommonINS_5APIntEvE10getFirstElEv(ptr noundef nonnull align 8 dereferenceable(16) %5)
  %7 = load i64, ptr %4, align 8
  call void @_ZN4llvm15SmallVectorBaseIjEC2EPvm(ptr noundef nonnull align 8 dereferenceable(16) %5, ptr noundef %6, i64 noundef %7)
  ret void
}

; Function Attrs: mustprogress nounwind uwtable
define linkonce_odr hidden void @_ZN4llvm25SmallVectorTemplateCommonIPKNS_6MCExprEvEC2Em(ptr noundef nonnull align 8 dereferenceable(16) %0, i64 noundef %1) unnamed_addr #0 comdat align 2 {
  %3 = alloca ptr, align 8
  %4 = alloca i64, align 8
  store ptr %0, ptr %3, align 8
  store i64 %1, ptr %4, align 8
  %5 = load ptr, ptr %3, align 8
  %6 = call noundef ptr @_ZNK4llvm25SmallVectorTemplateCommonIPKNS_6MCExprEvE10getFirstElEv(ptr noundef nonnull align 8 dereferenceable(16) %5)
  %7 = load i64, ptr %4, align 8
  call void @_ZN4llvm15SmallVectorBaseIjEC2EPvm(ptr noundef nonnull align 8 dereferenceable(16) %5, ptr noundef %6, i64 noundef %7)
  ret void
}

; Function Attrs: mustprogress nounwind uwtable
define linkonce_odr hidden void @_ZN4llvm23SmallVectorTemplateBaseINS_5APIntELb0EEC2Em(ptr noundef nonnull align 8 dereferenceable(16) %0, i64 noundef %1) unnamed_addr #0 comdat align 2 {
  %3 = alloca ptr, align 8
  %4 = alloca i64, align 8
  store ptr %0, ptr %3, align 8
  store i64 %1, ptr %4, align 8
  %5 = load ptr, ptr %3, align 8
  %6 = load i64, ptr %4, align 8
  call void @_ZN4llvm25SmallVectorTemplateCommonINS_5APIntEvEC2Em(ptr noundef nonnull align 8 dereferenceable(16) %5, i64 noundef %6)
  ret void
}

; Function Attrs: mustprogress nounwind uwtable
define linkonce_odr hidden void @_ZN4llvm23SmallVectorTemplateBaseIPKNS_6MCExprELb1EEC2Em(ptr noundef nonnull align 8 dereferenceable(16) %0, i64 noundef %1) unnamed_addr #0 comdat align 2 {
  %3 = alloca ptr, align 8
  %4 = alloca i64, align 8
  store ptr %0, ptr %3, align 8
  store i64 %1, ptr %4, align 8
  %5 = load ptr, ptr %3, align 8
  %6 = load i64, ptr %4, align 8
  call void @_ZN4llvm25SmallVectorTemplateCommonIPKNS_6MCExprEvEC2Em(ptr noundef nonnull align 8 dereferenceable(16) %5, i64 noundef %6)
  ret void
}

; Function Attrs: mustprogress nounwind uwtable
define linkonce_odr hidden void @_ZN4llvm15SmallVectorImplINS_5APIntEEC2Ej(ptr noundef nonnull align 8 dereferenceable(16) %0, i32 noundef %1) unnamed_addr #0 comdat align 2 {
  %3 = alloca ptr, align 8
  %4 = alloca i32, align 4
  store ptr %0, ptr %3, align 8
  store i32 %1, ptr %4, align 4
  %5 = load ptr, ptr %3, align 8
  %6 = load i32, ptr %4, align 4
  %7 = zext i32 %6 to i64
  call void @_ZN4llvm23SmallVectorTemplateBaseINS_5APIntELb0EEC2Em(ptr noundef nonnull align 8 dereferenceable(16) %5, i64 noundef %7)
  ret void
}

; Function Attrs: mustprogress nounwind uwtable
define linkonce_odr hidden void @_ZN4llvm15SmallVectorImplIPKNS_6MCExprEEC2Ej(ptr noundef nonnull align 8 dereferenceable(16) %0, i32 noundef %1) unnamed_addr #0 comdat align 2 {
  %3 = alloca ptr, align 8
  %4 = alloca i32, align 4
  store ptr %0, ptr %3, align 8
  store i32 %1, ptr %4, align 4
  %5 = load ptr, ptr %3, align 8
  %6 = load i32, ptr %4, align 4
  %7 = zext i32 %6 to i64
  call void @_ZN4llvm23SmallVectorTemplateBaseIPKNS_6MCExprELb1EEC2Em(ptr noundef nonnull align 8 dereferenceable(16) %5, i64 noundef %7)
  ret void
}

; Function Attrs: mustprogress nounwind uwtable
define linkonce_odr hidden void @_ZN4llvm11SmallVectorINS_5APIntELj1EEC2ERKS2_(ptr noundef nonnull align 8 dereferenceable(32) %0, ptr noundef nonnull align 8 dereferenceable(32) %1) unnamed_addr #0 comdat align 2 {
  %3 = alloca ptr, align 8
  %4 = alloca ptr, align 8
  store ptr %0, ptr %3, align 8
  store ptr %1, ptr %4, align 8
  %5 = load ptr, ptr %3, align 8
  call void @_ZN4llvm15SmallVectorImplINS_5APIntEEC2Ej(ptr noundef nonnull align 8 dereferenceable(16) %5, i32 noundef 1)
  %6 = load ptr, ptr %4, align 8
  %7 = call noundef zeroext i1 @_ZNK4llvm15SmallVectorBaseIjE5emptyEv(ptr noundef nonnull align 8 dereferenceable(16) %6)
  br i1 %7, label %11, label %8

8:                                                ; preds = %2
  %9 = load ptr, ptr %4, align 8
  %10 = call noundef nonnull align 8 dereferenceable(16) ptr @_ZN4llvm15SmallVectorImplINS_5APIntEEaSERKS2_(ptr noundef nonnull align 8 dereferenceable(16) %5, ptr noundef nonnull align 8 dereferenceable(16) %9)
  br label %11

11:                                               ; preds = %8, %2
  ret void
}

; Function Attrs: mustprogress nounwind uwtable
define linkonce_odr hidden void @_ZN4llvm11SmallVectorIPKNS_6MCExprELj1EEC2ERKS4_(ptr noundef nonnull align 8 dereferenceable(24) %0, ptr noundef nonnull align 8 dereferenceable(24) %1) unnamed_addr #0 comdat align 2 {
  %3 = alloca ptr, align 8
  %4 = alloca ptr, align 8
  store ptr %0, ptr %3, align 8
  store ptr %1, ptr %4, align 8
  %5 = load ptr, ptr %3, align 8
  call void @_ZN4llvm15SmallVectorImplIPKNS_6MCExprEEC2Ej(ptr noundef nonnull align 8 dereferenceable(16) %5, i32 noundef 1)
  %6 = load ptr, ptr %4, align 8
  %7 = call noundef zeroext i1 @_ZNK4llvm15SmallVectorBaseIjE5emptyEv(ptr noundef nonnull align 8 dereferenceable(16) %6)
  br i1 %7, label %11, label %8

8:                                                ; preds = %2
  %9 = load ptr, ptr %4, align 8
  %10 = call noundef nonnull align 8 dereferenceable(16) ptr @_ZN4llvm15SmallVectorImplIPKNS_6MCExprEEaSERKS4_(ptr noundef nonnull align 8 dereferenceable(16) %5, ptr noundef nonnull align 8 dereferenceable(16) %9)
  br label %11

11:                                               ; preds = %8, %2
  ret void
}

; Function Attrs: mustprogress nounwind uwtable
define internal void @_ZN12_GLOBAL__N_113RealFieldInfoC2ERKS0_(ptr noundef nonnull align 8 dereferenceable(32) %0, ptr noundef nonnull align 8 dereferenceable(32) %1) unnamed_addr #0 align 2 {
  %3 = alloca ptr, align 8
  %4 = alloca ptr, align 8
  store ptr %0, ptr %3, align 8
  store ptr %1, ptr %4, align 8
  %5 = load ptr, ptr %3, align 8
  %6 = getelementptr inbounds nuw %"struct.(anonymous namespace)::RealFieldInfo", ptr %5, i32 0, i32 0
  %7 = load ptr, ptr %4, align 8
  %8 = getelementptr inbounds nuw %"struct.(anonymous namespace)::RealFieldInfo", ptr %7, i32 0, i32 0
  call void @_ZN4llvm11SmallVectorINS_5APIntELj1EEC2ERKS2_(ptr noundef nonnull align 8 dereferenceable(32) %6, ptr noundef nonnull align 8 dereferenceable(32) %8)
  ret void
}

; Function Attrs: mustprogress nounwind uwtable
define internal void @_ZN12_GLOBAL__N_112IntFieldInfoC2ERKS0_(ptr noundef nonnull align 8 dereferenceable(24) %0, ptr noundef nonnull align 8 dereferenceable(24) %1) unnamed_addr #0 align 2 {
  %3 = alloca ptr, align 8
  %4 = alloca ptr, align 8
  store ptr %0, ptr %3, align 8
  store ptr %1, ptr %4, align 8
  %5 = load ptr, ptr %3, align 8
  %6 = getelementptr inbounds nuw %"struct.(anonymous namespace)::IntFieldInfo", ptr %5, i32 0, i32 0
  %7 = load ptr, ptr %4, align 8
  %8 = getelementptr inbounds nuw %"struct.(anonymous namespace)::IntFieldInfo", ptr %7, i32 0, i32 0
  call void @_ZN4llvm11SmallVectorIPKNS_6MCExprELj1EEC2ERKS4_(ptr noundef nonnull align 8 dereferenceable(24) %6, ptr noundef nonnull align 8 dereferenceable(24) %8)
  ret void
}

; Function Attrs: mustprogress nounwind uwtable
define internal void @_ZN12_GLOBAL__N_116FieldInitializerC2EOS0_(ptr noundef nonnull align 8 dereferenceable(120) %0, ptr noundef nonnull align 8 dereferenceable(120) %1) unnamed_addr #0 align 2 {
  %3 = alloca ptr, align 8
  %4 = alloca ptr, align 8
  store ptr %0, ptr %3, align 8
  store ptr %1, ptr %4, align 8
  %5 = load ptr, ptr %3, align 8
  %6 = getelementptr inbounds nuw %"class.(anonymous namespace)::FieldInitializer", ptr %5, i32 0, i32 0
  %7 = load ptr, ptr %4, align 8
  %8 = getelementptr inbounds nuw %"class.(anonymous namespace)::FieldInitializer", ptr %7, i32 0, i32 0
  %9 = load i32, ptr %8, align 8
  store i32 %9, ptr %6, align 8
  %10 = getelementptr inbounds nuw %"class.(anonymous namespace)::FieldInitializer", ptr %5, i32 0, i32 0
  %11 = load i32, ptr %10, align 8
  switch i32 %11, label %24 [
    i32 0, label %12
    i32 1, label %16
    i32 2, label %20
  ]

12:                                               ; preds = %2
  %13 = getelementptr inbounds nuw %"class.(anonymous namespace)::FieldInitializer", ptr %5, i32 0, i32 1
  %14 = load ptr, ptr %4, align 8
  %15 = getelementptr inbounds nuw %"class.(anonymous namespace)::FieldInitializer", ptr %14, i32 0, i32 1
  call void @_ZN12_GLOBAL__N_112IntFieldInfoC2ERKS0_(ptr noundef nonnull align 8 dereferenceable(24) %13, ptr noundef nonnull align 8 dereferenceable(24) %15)
  br label %24

16:                                               ; preds = %2
  %17 = getelementptr inbounds nuw %"class.(anonymous namespace)::FieldInitializer", ptr %5, i32 0, i32 1
  %18 = load ptr, ptr %4, align 8
  %19 = getelementptr inbounds nuw %"class.(anonymous namespace)::FieldInitializer", ptr %18, i32 0, i32 1
  call void @_ZN12_GLOBAL__N_113RealFieldInfoC2ERKS0_(ptr noundef nonnull align 8 dereferenceable(32) %17, ptr noundef nonnull align 8 dereferenceable(32) %19)
  br label %24

20:                                               ; preds = %2
  %21 = getelementptr inbounds nuw %"class.(anonymous namespace)::FieldInitializer", ptr %5, i32 0, i32 1
  %22 = load ptr, ptr %4, align 8
  %23 = getelementptr inbounds nuw %"class.(anonymous namespace)::FieldInitializer", ptr %22, i32 0, i32 1
  call void @_ZN12_GLOBAL__N_115StructFieldInfoC2ERKS0_(ptr noundef nonnull align 8 dereferenceable(112) %21, ptr noundef nonnull align 8 dereferenceable(112) %23)
  br label %24

24:                                               ; preds = %20, %16, %12, %2
  ret void
}

; Function Attrs: mustprogress nounwind uwtable
define internal void @_ZN12_GLOBAL__N_19FieldInfoC2EOS0_(ptr noundef nonnull align 8 dereferenceable(136) %0, ptr noundef nonnull align 8 dereferenceable(136) %1) unnamed_addr #0 align 2 {
  %3 = alloca ptr, align 8
  %4 = alloca ptr, align 8
  store ptr %0, ptr %3, align 8
  store ptr %1, ptr %4, align 8
  %5 = load ptr, ptr %3, align 8
  %6 = getelementptr inbounds nuw %"struct.(anonymous namespace)::FieldInfo", ptr %5, i32 0, i32 0
  %7 = load ptr, ptr %4, align 8
  %8 = getelementptr inbounds nuw %"struct.(anonymous namespace)::FieldInfo", ptr %7, i32 0, i32 0
  call void @llvm.memcpy.p0.p0.i64(ptr align 8 %6, ptr align 8 %8, i64 16, i1 false)
  %9 = getelementptr inbounds nuw %"struct.(anonymous namespace)::FieldInfo", ptr %5, i32 0, i32 4
  %10 = load ptr, ptr %4, align 8
  %11 = getelementptr inbounds nuw %"struct.(anonymous namespace)::FieldInfo", ptr %10, i32 0, i32 4
  call void @_ZN12_GLOBAL__N_116FieldInitializerC2EOS0_(ptr noundef nonnull align 8 dereferenceable(120) %9, ptr noundef nonnull align 8 dereferenceable(120) %11)
  ret void
}

; Function Attrs: mustprogress nounwind uwtable
define internal void @_ZSt10_ConstructIN12_GLOBAL__N_19FieldInfoEJS1_EEvPT_DpOT0_(ptr noundef %0, ptr noundef nonnull align 8 dereferenceable(136) %1) #0 {
  %3 = alloca ptr, align 8
  %4 = alloca ptr, align 8
  store ptr %0, ptr %3, align 8
  store ptr %1, ptr %4, align 8
  %5 = load ptr, ptr %3, align 8
  %6 = load ptr, ptr %4, align 8
  call void @_ZN12_GLOBAL__N_19FieldInfoC2EOS0_(ptr noundef nonnull align 8 dereferenceable(136) %5, ptr noundef nonnull align 8 dereferenceable(136) %6)
  ret void
}