; Function Attrs: mustprogress nounwind uwtable
define internal fastcc void @_ZSt10_ConstructIN12_GLOBAL__N_19FieldInfoEJS1_EEvPT_DpOT0_(ptr noundef initializes((0, 20)) %0, ptr noundef nonnull align 8 dereferenceable(136) %1) unnamed_addr #0 {
  tail call void @llvm.memcpy.p0.p0.i64(ptr noundef nonnull align 8 dereferenceable(136) %0, ptr noundef nonnull align 8 dereferenceable(136) %1, i64 16, i1 false)
  %3 = getelementptr inbounds nuw i8, ptr %0, i64 16
  %4 = getelementptr inbounds nuw i8, ptr %1, i64 16
  %5 = load i32, ptr %4, align 8
  store i32 %5, ptr %3, align 8
  switch i32 %5, label %_ZN12_GLOBAL__N_19FieldInfoC2EOS0_.exit [
    i32 0, label %6
    i32 1, label %13
    i32 2, label %20
  ]

6:                                                ; preds = %2
  %7 = getelementptr inbounds nuw i8, ptr %0, i64 24
  %8 = getelementptr inbounds nuw i8, ptr %1, i64 24
  %9 = getelementptr inbounds nuw i8, ptr %0, i64 40
  tail call void @_ZN4llvm15SmallVectorBaseIjEC2EPvm(ptr noundef nonnull align 8 dereferenceable(24) %7, ptr noundef nonnull %9, i64 noundef 1) #24
  %10 = tail call noundef zeroext i1 @_ZNK4llvm15SmallVectorBaseIjE5emptyEv(ptr noundef nonnull align 8 dereferenceable(24) %8) #24
  br i1 %10, label %_ZN12_GLOBAL__N_19FieldInfoC2EOS0_.exit, label %11

11:                                               ; preds = %6
  %12 = tail call noundef nonnull align 8 dereferenceable(16) ptr @_ZN4llvm15SmallVectorImplIPKNS_6MCExprEEaSERKS4_(ptr noundef nonnull align 8 dereferenceable(24) %7, ptr noundef nonnull align 8 dereferenceable(24) %8)
  br label %_ZN12_GLOBAL__N_19FieldInfoC2EOS0_.exit

13:                                               ; preds = %2
  %14 = getelementptr inbounds nuw i8, ptr %0, i64 24
  %15 = getelementptr inbounds nuw i8, ptr %1, i64 24
  %16 = getelementptr inbounds nuw i8, ptr %0, i64 40
  tail call void @_ZN4llvm15SmallVectorBaseIjEC2EPvm(ptr noundef nonnull align 8 dereferenceable(32) %14, ptr noundef nonnull %16, i64 noundef 1) #24
  %17 = tail call noundef zeroext i1 @_ZNK4llvm15SmallVectorBaseIjE5emptyEv(ptr noundef nonnull align 8 dereferenceable(32) %15) #24
  br i1 %17, label %_ZN12_GLOBAL__N_19FieldInfoC2EOS0_.exit, label %18

18:                                               ; preds = %13
  %19 = tail call noundef nonnull align 8 dereferenceable(16) ptr @_ZN4llvm15SmallVectorImplINS_5APIntEEaSERKS2_(ptr noundef nonnull align 8 dereferenceable(32) %14, ptr noundef nonnull align 8 dereferenceable(32) %15)
  br label %_ZN12_GLOBAL__N_19FieldInfoC2EOS0_.exit

20:                                               ; preds = %2
  %21 = getelementptr inbounds nuw i8, ptr %0, i64 24
  %22 = getelementptr inbounds nuw i8, ptr %1, i64 24
  tail call fastcc void @_ZN12_GLOBAL__N_115StructFieldInfoC2ERKS0_(ptr noundef nonnull align 8 dereferenceable(112) %21, ptr noundef nonnull align 8 dereferenceable(112) %22)
  br label %_ZN12_GLOBAL__N_19FieldInfoC2EOS0_.exit

_ZN12_GLOBAL__N_19FieldInfoC2EOS0_.exit:          ; preds = %2, %6, %11, %13, %18, %20
  ret void
}